; Function Attrs: nounwind uwtable
define ptr @l_Array_mapMUnsafe_map___at_Lake___aux__Lake__Util__OpaqueType______macroRules__Lake__declareOpaqueType__1___spec__3(ptr readnone captures(none) %0, ptr readnone captures(none) %1, i64 noundef %2, i64 noundef %3, ptr noundef %4) local_unnamed_addr #0 {
  %.not38 = icmp ult i64 %3, %2
  br i1 %.not38, label %.lr.ph, label %._crit_edge

.lr.ph:                                           ; preds = %5, %48
  %.01740 = phi i64 [ %32, %48 ], [ %3, %5 ]
  %.01939 = phi ptr [ %.0.i.i27, %48 ], [ %4, %5 ]
  %6 = getelementptr inbounds nuw i8, ptr %.01939, i64 24
  %7 = getelementptr inbounds nuw [0 x ptr], ptr %6, i64 0, i64 %.01740
  %8 = load ptr, ptr %7, align 8, !tbaa !4
  %9 = ptrtoint ptr %8 to i64
  %10 = and i64 %9, 1
  %.not.i = icmp eq i64 %10, 0
  br i1 %.not.i, label %11, label %lean_array_uget.exit

11:                                               ; preds = %.lr.ph
  %.val.i.i = load i32, ptr %8, align 4, !tbaa !8
  %12 = icmp sgt i32 %.val.i.i, 0
  br i1 %12, label %13, label %15, !prof !11

13:                                               ; preds = %11
  %14 = add nuw i32 %.val.i.i, 1
  store i32 %14, ptr %8, align 4, !tbaa !8
  br label %lean_array_uget.exit

15:                                               ; preds = %11
  %.not.i.i = icmp eq i32 %.val.i.i, 0
  br i1 %.not.i.i, label %lean_array_uget.exit, label %16

16:                                               ; preds = %15
  tail call void @lean_inc_ref_cold(ptr noundef nonnull %8) #4
  br label %lean_array_uget.exit

lean_array_uget.exit:                             ; preds = %.lr.ph, %13, %15, %16
  %.val.i.i22 = load i32, ptr %.01939, align 4, !tbaa !8
  %17 = icmp eq i32 %.val.i.i22, 1
  br i1 %17, label %lean_ensure_exclusive_array.exit.i, label %18

18:                                               ; preds = %lean_array_uget.exit
  %19 = tail call ptr @lean_copy_expand_array(ptr noundef nonnull %.01939, i1 noundef zeroext false) #4
  br label %lean_ensure_exclusive_array.exit.i

lean_ensure_exclusive_array.exit.i:               ; preds = %18, %lean_array_uget.exit
  %.0.i.i = phi ptr [ %19, %18 ], [ %.01939, %lean_array_uget.exit ]
  %20 = getelementptr inbounds nuw i8, ptr %.0.i.i, i64 24
  %21 = getelementptr inbounds nuw ptr, ptr %20, i64 %.01740
  %22 = load ptr, ptr %21, align 8, !tbaa !4
  %23 = ptrtoint ptr %22 to i64
  %24 = and i64 %23, 1
  %.not.i23 = icmp eq i64 %24, 0
  br i1 %.not.i23, label %25, label %lean_array_uset.exit

25:                                               ; preds = %lean_ensure_exclusive_array.exit.i
  %26 = load i32, ptr %22, align 4, !tbaa !8
  %27 = icmp sgt i32 %26, 1
  br i1 %27, label %28, label %30, !prof !11

28:                                               ; preds = %25
  %29 = add nsw i32 %26, -1
  store i32 %29, ptr %22, align 4, !tbaa !8
  br label %lean_array_uset.exit

30:                                               ; preds = %25
  %.not.i.i24 = icmp eq i32 %26, 0
  br i1 %.not.i.i24, label %lean_array_uset.exit, label %31

31:                                               ; preds = %30
  tail call void @lean_dec_ref_cold(ptr noundef nonnull %22) #4
  br label %lean_array_uset.exit

lean_array_uset.exit:                             ; preds = %lean_ensure_exclusive_array.exit.i, %28, %30, %31
  store ptr inttoptr (i64 1 to ptr), ptr %21, align 8, !tbaa !4
  %32 = add nuw i64 %.01740, 1
  %.val.i.i25 = load i32, ptr %.0.i.i, align 4, !tbaa !8
  %33 = icmp eq i32 %.val.i.i25, 1
  br i1 %33, label %lean_ensure_exclusive_array.exit.i26, label %34

34:                                               ; preds = %lean_array_uset.exit
  %35 = tail call ptr @lean_copy_expand_array(ptr noundef nonnull %.0.i.i, i1 noundef zeroext false) #4
  %.phi.trans.insert = getelementptr inbounds nuw i8, ptr %35, i64 24
  %.phi.trans.insert41 = getelementptr inbounds nuw ptr, ptr %.phi.trans.insert, i64 %.01740
  %.pre = load ptr, ptr %.phi.trans.insert41, align 8, !tbaa !4
  br label %lean_ensure_exclusive_array.exit.i26

lean_ensure_exclusive_array.exit.i26:             ; preds = %34, %lean_array_uset.exit
  %36 = phi ptr [ %.pre, %34 ], [ inttoptr (i64 1 to ptr), %lean_array_uset.exit ]
  %.0.i.i27 = phi ptr [ %35, %34 ], [ %.0.i.i, %lean_array_uset.exit ]
  %37 = getelementptr inbounds nuw i8, ptr %.0.i.i27, i64 24
  %38 = getelementptr inbounds nuw ptr, ptr %37, i64 %.01740
  %39 = ptrtoint ptr %36 to i64
  %40 = and i64 %39, 1
  %.not.i28 = icmp eq i64 %40, 0
  br i1 %.not.i28, label %41, label %48

41:                                               ; preds = %lean_ensure_exclusive_array.exit.i26
  %42 = load i32, ptr %36, align 4, !tbaa !8
  %43 = icmp sgt i32 %42, 1
  br i1 %43, label %44, label %46, !prof !11

44:                                               ; preds = %41
  %45 = add nsw i32 %42, -1
  store i32 %45, ptr %36, align 4, !tbaa !8
  br label %48

46:                                               ; preds = %41
  %.not.i.i29 = icmp eq i32 %42, 0
  br i1 %.not.i.i29, label %48, label %47

47:                                               ; preds = %46
  tail call void @lean_dec_ref_cold(ptr noundef nonnull %36) #4
  br label %48

48:                                               ; preds = %47, %46, %44, %lean_ensure_exclusive_array.exit.i26
  store ptr %8, ptr %38, align 8, !tbaa !4
  %exitcond.not = icmp eq i64 %32, %2
  br i1 %exitcond.not, label %._crit_edge, label %.lr.ph

._crit_edge:                                      ; preds = %48, %5
  %.019.lcssa = phi ptr [ %4, %5 ], [ %.0.i.i27, %48 ]
  ret ptr %.019.lcssa
}